target datalayout = "e-m:e-p270:32:32-p271:32:32-p272:64:64-i64:64-i128:128-f80:128-n8:16:32:64-S128"
target triple = "x86_64-pc-linux-gnu"

%struct.Aig_Obj_t_ = type { %union.anon, ptr, ptr, i64, i32, i32, %union.anon.0 }
%union.anon = type { ptr }
%union.anon.0 = type { ptr }
%struct.Fra_Sml_t_ = type { ptr, i32, i32, i32, i32, i32, i32, i32, i32, [0 x i32] }
%struct.Aig_Man_t_ = type { ptr, ptr, ptr, ptr, ptr, ptr, ptr, %struct.Aig_Obj_t_, i32, i32, i32, i32, i32, i32, [7 x i32], i32, ptr, i32, ptr, i32, ptr, i32, i32, i32, ptr, i32, i32, i32, i32, i32, ptr, ptr, i32, ptr, ptr, i32, ptr, ptr, i32, i32, i32, ptr, ptr, ptr, ptr, ptr, ptr, ptr, ptr, ptr, ptr, ptr, ptr, ptr, ptr, i32, ptr, ptr, ptr, ptr, i32, i64, i64, i64, ptr, ptr }
%struct.Vec_Ptr_t_ = type { i32, i32, ptr }

@.str.6 = private unnamed_addr constant [3 x i8] c"%d\00", align 1
@.str.7 = private unnamed_addr constant [2 x i8] c" \00", align 1
@.str.8 = private unnamed_addr constant [2 x i8] c"\0A\00", align 1

; Function Attrs: inlinehint nounwind uwtable
define internal i32 @Abc_InfoHasBit(ptr noundef %0, i32 noundef %1) #2 {
  %3 = alloca ptr, align 8
  %4 = alloca i32, align 4
  store ptr %0, ptr %3, align 8, !tbaa !29
  store i32 %1, ptr %4, align 4, !tbaa !8
  %5 = load ptr, ptr %3, align 8, !tbaa !29
  %6 = load i32, ptr %4, align 4, !tbaa !8
  %7 = ashr i32 %6, 5
  %8 = sext i32 %7 to i64
  %9 = getelementptr inbounds i32, ptr %5, i64 %8
  %10 = load i32, ptr %9, align 4, !tbaa !8
  %11 = load i32, ptr %4, align 4, !tbaa !8
  %12 = and i32 %11, 31
  %13 = shl i32 1, %12
  %14 = and i32 %10, %13
  %15 = icmp ugt i32 %14, 0
  %16 = zext i1 %15 to i32
  ret i32 %16
}

; Function Attrs: inlinehint nounwind uwtable
define internal ptr @Fra_ObjSim(ptr noundef %0, i32 noundef %1) #2 {
  %3 = alloca ptr, align 8
  %4 = alloca i32, align 4
  store ptr %0, ptr %3, align 8, !tbaa !35
  store i32 %1, ptr %4, align 4, !tbaa !8
  %5 = load ptr, ptr %3, align 8, !tbaa !35
  %6 = getelementptr inbounds nuw %struct.Fra_Sml_t_, ptr %5, i32 0, i32 9
  %7 = getelementptr inbounds [0 x i32], ptr %6, i64 0, i64 0
  %8 = load ptr, ptr %3, align 8, !tbaa !35
  %9 = getelementptr inbounds nuw %struct.Fra_Sml_t_, ptr %8, i32 0, i32 4
  %10 = load i32, ptr %9, align 4, !tbaa !32
  %11 = load i32, ptr %4, align 4, !tbaa !8
  %12 = mul nsw i32 %10, %11
  %13 = sext i32 %12 to i64
  %14 = getelementptr inbounds i32, ptr %7, i64 %13
  ret ptr %14
}

; Function Attrs: inlinehint nounwind uwtable
define internal ptr @Vec_PtrEntry(ptr noundef %0, i32 noundef %1) #2 {
  %3 = alloca ptr, align 8
  %4 = alloca i32, align 4
  store ptr %0, ptr %3, align 8, !tbaa !54
  store i32 %1, ptr %4, align 4, !tbaa !8
  %5 = load ptr, ptr %3, align 8, !tbaa !54
  %6 = getelementptr inbounds nuw %struct.Vec_Ptr_t_, ptr %5, i32 0, i32 2
  %7 = load ptr, ptr %6, align 8, !tbaa !57
  %8 = load i32, ptr %4, align 4, !tbaa !8
  %9 = sext i32 %8 to i64
  %10 = getelementptr inbounds ptr, ptr %7, i64 %9
  %11 = load ptr, ptr %10, align 8, !tbaa !58
  ret ptr %11
}

; Function Attrs: inlinehint nounwind uwtable
define internal i32 @Vec_PtrSize(ptr noundef %0) #2 {
  %2 = alloca ptr, align 8
  store ptr %0, ptr %2, align 8, !tbaa !54
  %3 = load ptr, ptr %2, align 8, !tbaa !54
  %4 = getelementptr inbounds nuw %struct.Vec_Ptr_t_, ptr %3, i32 0, i32 1
  %5 = load i32, ptr %4, align 4, !tbaa !55
  ret i32 %5
}

; Function Attrs: nounwind uwtable
define void @Fra_SmlPrintOutputs(ptr noundef %0, i32 noundef %1) #0 {
  %3 = alloca ptr, align 8
  %4 = alloca i32, align 4
  %5 = alloca ptr, align 8
  %6 = alloca ptr, align 8
  %7 = alloca i32, align 4
  %8 = alloca i32, align 4
  store ptr %0, ptr %3, align 8, !tbaa !35
  store i32 %1, ptr %4, align 4, !tbaa !8
  call void @llvm.lifetime.start.p0(i64 8, ptr %5) #8
  call void @llvm.lifetime.start.p0(i64 8, ptr %6) #8
  call void @llvm.lifetime.start.p0(i64 4, ptr %7) #8
  call void @llvm.lifetime.start.p0(i64 4, ptr %8) #8
  store i32 0, ptr %8, align 4, !tbaa !8
  br label %9

9:                                                ; preds = %82, %2
  %10 = load i32, ptr %8, align 4, !tbaa !8
  %11 = load i32, ptr %4, align 4, !tbaa !8
  %12 = icmp slt i32 %10, %11
  br i1 %12, label %13, label %85

13:                                               ; preds = %9
  store i32 0, ptr %7, align 4, !tbaa !8
  br label %14

14:                                               ; preds = %43, %13
  %15 = load i32, ptr %7, align 4, !tbaa !8
  %16 = load ptr, ptr %3, align 8, !tbaa !35
  %17 = getelementptr inbounds nuw %struct.Fra_Sml_t_, ptr %16, i32 0, i32 0
  %18 = load ptr, ptr %17, align 8, !tbaa !94
  %19 = getelementptr inbounds nuw %struct.Aig_Man_t_, ptr %18, i32 0, i32 2
  %20 = load ptr, ptr %19, align 8, !tbaa !44
  %21 = call i32 @Vec_PtrSize(ptr noundef %20)
  %22 = icmp slt i32 %15, %21
  br i1 %22, label %23, label %31

23:                                               ; preds = %14
  %24 = load ptr, ptr %3, align 8, !tbaa !35
  %25 = getelementptr inbounds nuw %struct.Fra_Sml_t_, ptr %24, i32 0, i32 0
  %26 = load ptr, ptr %25, align 8, !tbaa !94
  %27 = getelementptr inbounds nuw %struct.Aig_Man_t_, ptr %26, i32 0, i32 2
  %28 = load ptr, ptr %27, align 8, !tbaa !44
  %29 = load i32, ptr %7, align 4, !tbaa !8
  %30 = call ptr @Vec_PtrEntry(ptr noundef %28, i32 noundef %29)
  store ptr %30, ptr %5, align 8, !tbaa !3
  br label %31

31:                                               ; preds = %23, %14
  %32 = phi i1 [ false, %14 ], [ true, %23 ]
  br i1 %32, label %33, label %46

33:                                               ; preds = %31
  %34 = load ptr, ptr %3, align 8, !tbaa !35
  %35 = load ptr, ptr %5, align 8, !tbaa !3
  %36 = getelementptr inbounds nuw %struct.Aig_Obj_t_, ptr %35, i32 0, i32 5
  %37 = load i32, ptr %36, align 4, !tbaa !27
  %38 = call ptr @Fra_ObjSim(ptr noundef %34, i32 noundef %37)
  store ptr %38, ptr %6, align 8, !tbaa !29
  %39 = load ptr, ptr %6, align 8, !tbaa !29
  %40 = load i32, ptr %8, align 4, !tbaa !8
  %41 = call i32 @Abc_InfoHasBit(ptr noundef %39, i32 noundef %40)
  %42 = call i32 (ptr, ...) @printf(ptr noundef @.str.6, i32 noundef %41)
  br label %43

43:                                               ; preds = %33
  %44 = load i32, ptr %7, align 4, !tbaa !8
  %45 = add nsw i32 %44, 1
  store i32 %45, ptr %7, align 4, !tbaa !8
  br label %14, !llvm.loop !158

46:                                               ; preds = %31
  %47 = call i32 (ptr, ...) @printf(ptr noundef @.str.7)
  store i32 0, ptr %7, align 4, !tbaa !8
  br label %48

48:                                               ; preds = %77, %46
  %49 = load i32, ptr %7, align 4, !tbaa !8
  %50 = load ptr, ptr %3, align 8, !tbaa !35
  %51 = getelementptr inbounds nuw %struct.Fra_Sml_t_, ptr %50, i32 0, i32 0
  %52 = load ptr, ptr %51, align 8, !tbaa !94
  %53 = getelementptr inbounds nuw %struct.Aig_Man_t_, ptr %52, i32 0, i32 3
  %54 = load ptr, ptr %53, align 8, !tbaa !89
  %55 = call i32 @Vec_PtrSize(ptr noundef %54)
  %56 = icmp slt i32 %49, %55
  br i1 %56, label %57, label %65

57:                                               ; preds = %48
  %58 = load ptr, ptr %3, align 8, !tbaa !35
  %59 = getelementptr inbounds nuw %struct.Fra_Sml_t_, ptr %58, i32 0, i32 0
  %60 = load ptr, ptr %59, align 8, !tbaa !94
  %61 = getelementptr inbounds nuw %struct.Aig_Man_t_, ptr %60, i32 0, i32 3
  %62 = load ptr, ptr %61, align 8, !tbaa !89
  %63 = load i32, ptr %7, align 4, !tbaa !8
  %64 = call ptr @Vec_PtrEntry(ptr noundef %62, i32 noundef %63)
  store ptr %64, ptr %5, align 8, !tbaa !3
  br label %65

65:                                               ; preds = %57, %48
  %66 = phi i1 [ false, %48 ], [ true, %57 ]
  br i1 %66, label %67, label %80

67:                                               ; preds = %65
  %68 = load ptr, ptr %3, align 8, !tbaa !35
  %69 = load ptr, ptr %5, align 8, !tbaa !3
  %70 = getelementptr inbounds nuw %struct.Aig_Obj_t_, ptr %69, i32 0, i32 5
  %71 = load i32, ptr %70, align 4, !tbaa !27
  %72 = call ptr @Fra_ObjSim(ptr noundef %68, i32 noundef %71)
  store ptr %72, ptr %6, align 8, !tbaa !29
  %73 = load ptr, ptr %6, align 8, !tbaa !29
  %74 = load i32, ptr %8, align 4, !tbaa !8
  %75 = call i32 @Abc_InfoHasBit(ptr noundef %73, i32 noundef %74)
  %76 = call i32 (ptr, ...) @printf(ptr noundef @.str.6, i32 noundef %75)
  br label %77

77:                                               ; preds = %67
  %78 = load i32, ptr %7, align 4, !tbaa !8
  %79 = add nsw i32 %78, 1
  store i32 %79, ptr %7, align 4, !tbaa !8
  br label %48, !llvm.loop !159

80:                                               ; preds = %65
  %81 = call i32 (ptr, ...) @printf(ptr noundef @.str.8)
  br label %82

82:                                               ; preds = %80
  %83 = load i32, ptr %8, align 4, !tbaa !8
  %84 = add nsw i32 %83, 1
  store i32 %84, ptr %8, align 4, !tbaa !8
  br label %9, !llvm.loop !160

85:                                               ; preds = %9
  call void @llvm.lifetime.end.p0(i64 4, ptr %8) #8
  call void @llvm.lifetime.end.p0(i64 4, ptr %7) #8
  call void @llvm.lifetime.end.p0(i64 8, ptr %6) #8
  call void @llvm.lifetime.end.p0(i64 8, ptr %5) #8
  ret void
}