; Function Attrs: nofree nounwind uwtable
define void @Fra_SmlPrintOutputs(ptr noundef readonly captures(none) %0, i32 noundef %1) local_unnamed_addr #7 {
  %3 = icmp sgt i32 %1, 0
  br i1 %3, label %.preheader.lr.ph, label %._crit_edge

.preheader.lr.ph:                                 ; preds = %2
  %4 = getelementptr inbounds nuw i8, ptr %0, i64 40
  %5 = getelementptr inbounds nuw i8, ptr %0, i64 20
  br label %.preheader

.preheader:                                       ; preds = %.preheader.lr.ph, %.critedge2
  %.034 = phi i32 [ 0, %.preheader.lr.ph ], [ %62, %.critedge2 ]
  %6 = load ptr, ptr %0, align 8, !tbaa !85
  %7 = getelementptr inbounds nuw i8, ptr %6, i64 16
  %8 = load ptr, ptr %7, align 8, !tbaa !45
  %9 = getelementptr i8, ptr %8, i64 4
  %.val2427 = load i32, ptr %9, align 4, !tbaa !46
  %10 = icmp sgt i32 %.val2427, 0
  br i1 %10, label %.lr.ph, label %.critedge

.lr.ph:                                           ; preds = %.preheader
  %11 = lshr i32 %.034, 5
  %12 = zext nneg i32 %11 to i64
  %invariant.gep = getelementptr i32, ptr %4, i64 %12
  %13 = and i32 %.034, 31
  br label %14

14:                                               ; preds = %.lr.ph, %14
  %indvars.iv = phi i64 [ 0, %.lr.ph ], [ %indvars.iv.next, %14 ]
  %15 = phi ptr [ %8, %.lr.ph ], [ %30, %14 ]
  %16 = getelementptr i8, ptr %15, i64 8
  %.val26 = load ptr, ptr %16, align 8, !tbaa !51
  %17 = getelementptr inbounds nuw ptr, ptr %.val26, i64 %indvars.iv
  %18 = load ptr, ptr %17, align 8, !tbaa !65
  %19 = getelementptr inbounds nuw i8, ptr %18, i64 36
  %20 = load i32, ptr %19, align 4, !tbaa !22
  %21 = load i32, ptr %5, align 4, !tbaa !25
  %22 = mul nsw i32 %21, %20
  %23 = sext i32 %22 to i64
  %gep = getelementptr i32, ptr %invariant.gep, i64 %23
  %24 = load i32, ptr %gep, align 4, !tbaa !28
  %25 = lshr i32 %24, %13
  %26 = and i32 %25, 1
  %27 = tail call i32 (ptr, ...) @printf(ptr noundef nonnull dereferenceable(1) @.str.6, i32 noundef %26)
  %indvars.iv.next = add nuw nsw i64 %indvars.iv, 1
  %28 = load ptr, ptr %0, align 8, !tbaa !85
  %29 = getelementptr inbounds nuw i8, ptr %28, i64 16
  %30 = load ptr, ptr %29, align 8, !tbaa !45
  %31 = getelementptr i8, ptr %30, i64 4
  %.val24 = load i32, ptr %31, align 4, !tbaa !46
  %32 = sext i32 %.val24 to i64
  %33 = icmp slt i64 %indvars.iv.next, %32
  br i1 %33, label %14, label %.critedge, !llvm.loop !145

.critedge:                                        ; preds = %14, %.preheader
  %putchar = tail call i32 @putchar(i32 32)
  %34 = load ptr, ptr %0, align 8, !tbaa !85
  %35 = getelementptr inbounds nuw i8, ptr %34, i64 24
  %36 = load ptr, ptr %35, align 8, !tbaa !80
  %37 = getelementptr i8, ptr %36, i64 4
  %.val29 = load i32, ptr %37, align 4, !tbaa !46
  %38 = icmp sgt i32 %.val29, 0
  br i1 %38, label %.lr.ph31, label %.critedge2

.lr.ph31:                                         ; preds = %.critedge
  %39 = lshr i32 %.034, 5
  %40 = zext nneg i32 %39 to i64
  %invariant.gep32 = getelementptr i32, ptr %4, i64 %40
  %41 = and i32 %.034, 31
  br label %42

42:                                               ; preds = %.lr.ph31, %42
  %indvars.iv36 = phi i64 [ 0, %.lr.ph31 ], [ %indvars.iv.next37, %42 ]
  %43 = phi ptr [ %36, %.lr.ph31 ], [ %58, %42 ]
  %44 = getelementptr i8, ptr %43, i64 8
  %.val25 = load ptr, ptr %44, align 8, !tbaa !51
  %45 = getelementptr inbounds nuw ptr, ptr %.val25, i64 %indvars.iv36
  %46 = load ptr, ptr %45, align 8, !tbaa !65
  %47 = getelementptr inbounds nuw i8, ptr %46, i64 36
  %48 = load i32, ptr %47, align 4, !tbaa !22
  %49 = load i32, ptr %5, align 4, !tbaa !25
  %50 = mul nsw i32 %49, %48
  %51 = sext i32 %50 to i64
  %gep33 = getelementptr i32, ptr %invariant.gep32, i64 %51
  %52 = load i32, ptr %gep33, align 4, !tbaa !28
  %53 = lshr i32 %52, %41
  %54 = and i32 %53, 1
  %55 = tail call i32 (ptr, ...) @printf(ptr noundef nonnull dereferenceable(1) @.str.6, i32 noundef %54)
  %indvars.iv.next37 = add nuw nsw i64 %indvars.iv36, 1
  %56 = load ptr, ptr %0, align 8, !tbaa !85
  %57 = getelementptr inbounds nuw i8, ptr %56, i64 24
  %58 = load ptr, ptr %57, align 8, !tbaa !80
  %59 = getelementptr i8, ptr %58, i64 4
  %.val = load i32, ptr %59, align 4, !tbaa !46
  %60 = sext i32 %.val to i64
  %61 = icmp slt i64 %indvars.iv.next37, %60
  br i1 %61, label %42, label %.critedge2, !llvm.loop !146

.critedge2:                                       ; preds = %42, %.critedge
  %putchar23 = tail call i32 @putchar(i32 10)
  %62 = add nuw nsw i32 %.034, 1
  %exitcond.not = icmp eq i32 %62, %1
  br i1 %exitcond.not, label %._crit_edge, label %.preheader, !llvm.loop !147

._crit_edge:                                      ; preds = %.critedge2, %2
  ret void
}